
Lab10_ex1.elf:     file format elf32-avr

Sections:
Idx Name          Size      VMA       LMA       File off  Algn
  0 .data         00000004  00800100  000002a0  00000334  2**0
                  CONTENTS, ALLOC, LOAD, DATA
  1 .text         000002a0  00000000  00000000  00000094  2**1
                  CONTENTS, ALLOC, LOAD, READONLY, CODE
  2 .bss          0000000a  00800104  00800104  00000338  2**0
                  ALLOC
  3 .comment      00000030  00000000  00000000  00000338  2**0
                  CONTENTS, READONLY
  4 .note.gnu.avr.deviceinfo 00000040  00000000  00000000  00000368  2**2
                  CONTENTS, READONLY
  5 .debug_aranges 00000060  00000000  00000000  000003a8  2**0
                  CONTENTS, READONLY, DEBUGGING
  6 .debug_info   00000a41  00000000  00000000  00000408  2**0
                  CONTENTS, READONLY, DEBUGGING
  7 .debug_abbrev 00000867  00000000  00000000  00000e49  2**0
                  CONTENTS, READONLY, DEBUGGING
  8 .debug_line   000003dc  00000000  00000000  000016b0  2**0
                  CONTENTS, READONLY, DEBUGGING
  9 .debug_frame  000000c4  00000000  00000000  00001a8c  2**2
                  CONTENTS, READONLY, DEBUGGING
 10 .debug_str    000004bf  00000000  00000000  00001b50  2**0
                  CONTENTS, READONLY, DEBUGGING
 11 .debug_loc    00000063  00000000  00000000  0000200f  2**0
                  CONTENTS, READONLY, DEBUGGING
 12 .debug_ranges 00000050  00000000  00000000  00002072  2**0
                  CONTENTS, READONLY, DEBUGGING

Disassembly of section .text:

00000000 <__vectors>:
   0:	45 c0       	rjmp	.+138    	; 0x8c <__ctors_end>
   2:	00 00       	nop
   4:	60 c0       	rjmp	.+192    	; 0xc6 <__bad_interrupt>
   6:	00 00       	nop
   8:	5e c0       	rjmp	.+188    	; 0xc6 <__bad_interrupt>
   a:	00 00       	nop
   c:	5c c0       	rjmp	.+184    	; 0xc6 <__bad_interrupt>
   e:	00 00       	nop
  10:	5a c0       	rjmp	.+180    	; 0xc6 <__bad_interrupt>
  12:	00 00       	nop
  14:	58 c0       	rjmp	.+176    	; 0xc6 <__bad_interrupt>
  16:	00 00       	nop
  18:	56 c0       	rjmp	.+172    	; 0xc6 <__bad_interrupt>
  1a:	00 00       	nop
  1c:	54 c0       	rjmp	.+168    	; 0xc6 <__bad_interrupt>
  1e:	00 00       	nop
  20:	52 c0       	rjmp	.+164    	; 0xc6 <__bad_interrupt>
  22:	00 00       	nop
  24:	50 c0       	rjmp	.+160    	; 0xc6 <__bad_interrupt>
  26:	00 00       	nop
  28:	4e c0       	rjmp	.+156    	; 0xc6 <__bad_interrupt>
  2a:	00 00       	nop
  2c:	4c c0       	rjmp	.+152    	; 0xc6 <__bad_interrupt>
  2e:	00 00       	nop
  30:	4a c0       	rjmp	.+148    	; 0xc6 <__bad_interrupt>
  32:	00 00       	nop
  34:	7e c0       	rjmp	.+252    	; 0x132 <__vector_13>
  36:	00 00       	nop
  38:	46 c0       	rjmp	.+140    	; 0xc6 <__bad_interrupt>
  3a:	00 00       	nop
  3c:	44 c0       	rjmp	.+136    	; 0xc6 <__bad_interrupt>
  3e:	00 00       	nop
  40:	42 c0       	rjmp	.+132    	; 0xc6 <__bad_interrupt>
  42:	00 00       	nop
  44:	40 c0       	rjmp	.+128    	; 0xc6 <__bad_interrupt>
  46:	00 00       	nop
  48:	3e c0       	rjmp	.+124    	; 0xc6 <__bad_interrupt>
  4a:	00 00       	nop
  4c:	3c c0       	rjmp	.+120    	; 0xc6 <__bad_interrupt>
  4e:	00 00       	nop
  50:	3a c0       	rjmp	.+116    	; 0xc6 <__bad_interrupt>
  52:	00 00       	nop
  54:	38 c0       	rjmp	.+112    	; 0xc6 <__bad_interrupt>
  56:	00 00       	nop
  58:	36 c0       	rjmp	.+108    	; 0xc6 <__bad_interrupt>
  5a:	00 00       	nop
  5c:	34 c0       	rjmp	.+104    	; 0xc6 <__bad_interrupt>
  5e:	00 00       	nop
  60:	32 c0       	rjmp	.+100    	; 0xc6 <__bad_interrupt>
  62:	00 00       	nop
  64:	30 c0       	rjmp	.+96     	; 0xc6 <__bad_interrupt>
  66:	00 00       	nop
  68:	2e c0       	rjmp	.+92     	; 0xc6 <__bad_interrupt>
  6a:	00 00       	nop
  6c:	2c c0       	rjmp	.+88     	; 0xc6 <__bad_interrupt>
  6e:	00 00       	nop
  70:	2a c0       	rjmp	.+84     	; 0xc6 <__bad_interrupt>
  72:	00 00       	nop
  74:	28 c0       	rjmp	.+80     	; 0xc6 <__bad_interrupt>
  76:	00 00       	nop
  78:	26 c0       	rjmp	.+76     	; 0xc6 <__bad_interrupt>
  7a:	00 00       	nop
  7c:	24 c0       	rjmp	.+72     	; 0xc6 <__bad_interrupt>
  7e:	00 00       	nop
  80:	22 c0       	rjmp	.+68     	; 0xc6 <__bad_interrupt>
  82:	00 00       	nop
  84:	20 c0       	rjmp	.+64     	; 0xc6 <__bad_interrupt>
  86:	00 00       	nop
  88:	1e c0       	rjmp	.+60     	; 0xc6 <__bad_interrupt>
	...

0000008c <__ctors_end>:
  8c:	11 24       	eor	r1, r1
  8e:	1f be       	out	0x3f, r1	; 63
  90:	cf ef       	ldi	r28, 0xFF	; 255
  92:	d0 e4       	ldi	r29, 0x40	; 64
  94:	de bf       	out	0x3e, r29	; 62
  96:	cd bf       	out	0x3d, r28	; 61

00000098 <__do_copy_data>:
  98:	11 e0       	ldi	r17, 0x01	; 1
  9a:	a0 e0       	ldi	r26, 0x00	; 0
  9c:	b1 e0       	ldi	r27, 0x01	; 1
  9e:	e0 ea       	ldi	r30, 0xA0	; 160
  a0:	f2 e0       	ldi	r31, 0x02	; 2
  a2:	00 e0       	ldi	r16, 0x00	; 0
  a4:	0b bf       	out	0x3b, r16	; 59
  a6:	02 c0       	rjmp	.+4      	; 0xac <__do_copy_data+0x14>
  a8:	07 90       	elpm	r0, Z+
  aa:	0d 92       	st	X+, r0
  ac:	a4 30       	cpi	r26, 0x04	; 4
  ae:	b1 07       	cpc	r27, r17
  b0:	d9 f7       	brne	.-10     	; 0xa8 <__do_copy_data+0x10>

000000b2 <__do_clear_bss>:
  b2:	21 e0       	ldi	r18, 0x01	; 1
  b4:	a4 e0       	ldi	r26, 0x04	; 4
  b6:	b1 e0       	ldi	r27, 0x01	; 1
  b8:	01 c0       	rjmp	.+2      	; 0xbc <.do_clear_bss_start>

000000ba <.do_clear_bss_loop>:
  ba:	1d 92       	st	X+, r1

000000bc <.do_clear_bss_start>:
  bc:	ae 30       	cpi	r26, 0x0E	; 14
  be:	b2 07       	cpc	r27, r18
  c0:	e1 f7       	brne	.-8      	; 0xba <.do_clear_bss_loop>
  c2:	d3 d0       	rcall	.+422    	; 0x26a <main>
  c4:	eb c0       	rjmp	.+470    	; 0x29c <_exit>

000000c6 <__bad_interrupt>:
  c6:	9c cf       	rjmp	.-200    	; 0x0 <__vectors>

000000c8 <TimerSet>:
void TimerOff() {
	TCCR1B 	= 0x00; // bit3bit2bit1bit0=0000: timer off
}

void TimerISR() {
	TimerFlag = 1;
  c8:	60 93 00 01 	sts	0x0100, r22	; 0x800100 <__DATA_REGION_ORIGIN__>
  cc:	70 93 01 01 	sts	0x0101, r23	; 0x800101 <__DATA_REGION_ORIGIN__+0x1>
  d0:	80 93 02 01 	sts	0x0102, r24	; 0x800102 <__DATA_REGION_ORIGIN__+0x2>
  d4:	90 93 03 01 	sts	0x0103, r25	; 0x800103 <__DATA_REGION_ORIGIN__+0x3>
  d8:	60 93 04 01 	sts	0x0104, r22	; 0x800104 <__data_end>
  dc:	70 93 05 01 	sts	0x0105, r23	; 0x800105 <__data_end+0x1>
  e0:	80 93 06 01 	sts	0x0106, r24	; 0x800106 <__data_end+0x2>
  e4:	90 93 07 01 	sts	0x0107, r25	; 0x800107 <__data_end+0x3>
  e8:	08 95       	ret

000000ea <TimerOn>:
  ea:	8b e0       	ldi	r24, 0x0B	; 11
  ec:	80 93 81 00 	sts	0x0081, r24	; 0x800081 <__TEXT_REGION_LENGTH__+0x7e0081>
  f0:	8d e7       	ldi	r24, 0x7D	; 125
  f2:	90 e0       	ldi	r25, 0x00	; 0
  f4:	90 93 89 00 	sts	0x0089, r25	; 0x800089 <__TEXT_REGION_LENGTH__+0x7e0089>
  f8:	80 93 88 00 	sts	0x0088, r24	; 0x800088 <__TEXT_REGION_LENGTH__+0x7e0088>
  fc:	82 e0       	ldi	r24, 0x02	; 2
  fe:	80 93 6f 00 	sts	0x006F, r24	; 0x80006f <__TEXT_REGION_LENGTH__+0x7e006f>
 102:	10 92 85 00 	sts	0x0085, r1	; 0x800085 <__TEXT_REGION_LENGTH__+0x7e0085>
 106:	10 92 84 00 	sts	0x0084, r1	; 0x800084 <__TEXT_REGION_LENGTH__+0x7e0084>
 10a:	80 91 00 01 	lds	r24, 0x0100	; 0x800100 <__DATA_REGION_ORIGIN__>
 10e:	90 91 01 01 	lds	r25, 0x0101	; 0x800101 <__DATA_REGION_ORIGIN__+0x1>
 112:	a0 91 02 01 	lds	r26, 0x0102	; 0x800102 <__DATA_REGION_ORIGIN__+0x2>
 116:	b0 91 03 01 	lds	r27, 0x0103	; 0x800103 <__DATA_REGION_ORIGIN__+0x3>
 11a:	80 93 04 01 	sts	0x0104, r24	; 0x800104 <__data_end>
 11e:	90 93 05 01 	sts	0x0105, r25	; 0x800105 <__data_end+0x1>
 122:	a0 93 06 01 	sts	0x0106, r26	; 0x800106 <__data_end+0x2>
 126:	b0 93 07 01 	sts	0x0107, r27	; 0x800107 <__data_end+0x3>
 12a:	8f b7       	in	r24, 0x3f	; 63
 12c:	80 68       	ori	r24, 0x80	; 128
 12e:	8f bf       	out	0x3f, r24	; 63
 130:	08 95       	ret

00000132 <__vector_13>:
}

// In our approach, the C programmer does not touch this ISR, but rather TimerISR()
ISR(TIMER1_COMPA_vect)
{
 132:	1f 92       	push	r1
 134:	0f 92       	push	r0
 136:	0f b6       	in	r0, 0x3f	; 63
 138:	0f 92       	push	r0
 13a:	11 24       	eor	r1, r1
 13c:	8f 93       	push	r24
 13e:	9f 93       	push	r25
 140:	af 93       	push	r26
 142:	bf 93       	push	r27
	// CPU automatically calls when TCNT0 == OCR0 (every 1 ms per TimerOn settings)
	_avr_timer_cntcurr--; 			// Count down to 0 rather than up to TOP
 144:	80 91 04 01 	lds	r24, 0x0104	; 0x800104 <__data_end>
 148:	90 91 05 01 	lds	r25, 0x0105	; 0x800105 <__data_end+0x1>
 14c:	a0 91 06 01 	lds	r26, 0x0106	; 0x800106 <__data_end+0x2>
 150:	b0 91 07 01 	lds	r27, 0x0107	; 0x800107 <__data_end+0x3>
 154:	01 97       	sbiw	r24, 0x01	; 1
 156:	a1 09       	sbc	r26, r1
 158:	b1 09       	sbc	r27, r1
 15a:	80 93 04 01 	sts	0x0104, r24	; 0x800104 <__data_end>
 15e:	90 93 05 01 	sts	0x0105, r25	; 0x800105 <__data_end+0x1>
 162:	a0 93 06 01 	sts	0x0106, r26	; 0x800106 <__data_end+0x2>
 166:	b0 93 07 01 	sts	0x0107, r27	; 0x800107 <__data_end+0x3>
	if (_avr_timer_cntcurr == 0) { 	// results in a more efficient compare
 16a:	89 2b       	or	r24, r25
 16c:	8a 2b       	or	r24, r26
 16e:	8b 2b       	or	r24, r27
 170:	99 f4       	brne	.+38     	; 0x198 <__vector_13+0x66>
void TimerOff() {
	TCCR1B 	= 0x00; // bit3bit2bit1bit0=0000: timer off
}

void TimerISR() {
	TimerFlag = 1;
 172:	81 e0       	ldi	r24, 0x01	; 1
 174:	80 93 08 01 	sts	0x0108, r24	; 0x800108 <TimerFlag>
{
	// CPU automatically calls when TCNT0 == OCR0 (every 1 ms per TimerOn settings)
	_avr_timer_cntcurr--; 			// Count down to 0 rather than up to TOP
	if (_avr_timer_cntcurr == 0) { 	// results in a more efficient compare
		TimerISR(); 				// Call the ISR that the user uses
		_avr_timer_cntcurr = _avr_timer_M;
 178:	80 91 00 01 	lds	r24, 0x0100	; 0x800100 <__DATA_REGION_ORIGIN__>
 17c:	90 91 01 01 	lds	r25, 0x0101	; 0x800101 <__DATA_REGION_ORIGIN__+0x1>
 180:	a0 91 02 01 	lds	r26, 0x0102	; 0x800102 <__DATA_REGION_ORIGIN__+0x2>
 184:	b0 91 03 01 	lds	r27, 0x0103	; 0x800103 <__DATA_REGION_ORIGIN__+0x3>
 188:	80 93 04 01 	sts	0x0104, r24	; 0x800104 <__data_end>
 18c:	90 93 05 01 	sts	0x0105, r25	; 0x800105 <__data_end+0x1>
 190:	a0 93 06 01 	sts	0x0106, r26	; 0x800106 <__data_end+0x2>
 194:	b0 93 07 01 	sts	0x0107, r27	; 0x800107 <__data_end+0x3>
	}
}
 198:	bf 91       	pop	r27
 19a:	af 91       	pop	r26
 19c:	9f 91       	pop	r25
 19e:	8f 91       	pop	r24
 1a0:	0f 90       	pop	r0
 1a2:	0f be       	out	0x3f, r0	; 63
 1a4:	0f 90       	pop	r0
 1a6:	1f 90       	pop	r1
 1a8:	18 95       	reti

000001aa <ThreeLEDsSM>:
enum BlinkingLEDSM{blinkingLED, ON, OFF} stateblinkingLED;
enum CombineLEDsSM{combineLEDS} statecombineLEDS;

void ThreeLEDsSM() // B0-B2
{
	switch(statethreeLEDS)
 1aa:	80 91 0b 01 	lds	r24, 0x010B	; 0x80010b <statethreeLEDS>
 1ae:	81 30       	cpi	r24, 0x01	; 1
 1b0:	51 f0       	breq	.+20     	; 0x1c6 <ThreeLEDsSM+0x1c>
 1b2:	28 f0       	brcs	.+10     	; 0x1be <ThreeLEDsSM+0x14>
 1b4:	82 30       	cpi	r24, 0x02	; 2
 1b6:	59 f0       	breq	.+22     	; 0x1ce <ThreeLEDsSM+0x24>
 1b8:	83 30       	cpi	r24, 0x03	; 3
 1ba:	69 f0       	breq	.+26     	; 0x1d6 <ThreeLEDsSM+0x2c>
 1bc:	10 c0       	rjmp	.+32     	; 0x1de <ThreeLEDsSM+0x34>
	{               // Transitions
		case threeLEDS:
			statethreeLEDS = S1;
 1be:	81 e0       	ldi	r24, 0x01	; 1
 1c0:	80 93 0b 01 	sts	0x010B, r24	; 0x80010b <statethreeLEDS>
			break;
 1c4:	17 c0       	rjmp	.+46     	; 0x1f4 <ThreeLEDsSM+0x4a>
		case S1:
			statethreeLEDS = S2;
 1c6:	82 e0       	ldi	r24, 0x02	; 2
 1c8:	80 93 0b 01 	sts	0x010B, r24	; 0x80010b <statethreeLEDS>
 1cc:	17 c0       	rjmp	.+46     	; 0x1fc <ThreeLEDsSM+0x52>
			break;
		case S2:
			statethreeLEDS = S3;
 1ce:	83 e0       	ldi	r24, 0x03	; 3
 1d0:	80 93 0b 01 	sts	0x010B, r24	; 0x80010b <statethreeLEDS>
 1d4:	17 c0       	rjmp	.+46     	; 0x204 <ThreeLEDsSM+0x5a>
			break;
		case S3:
			statethreeLEDS = S1;
 1d6:	81 e0       	ldi	r24, 0x01	; 1
 1d8:	80 93 0b 01 	sts	0x010B, r24	; 0x80010b <statethreeLEDS>
			break;
 1dc:	0b c0       	rjmp	.+22     	; 0x1f4 <ThreeLEDsSM+0x4a>
		default:
			break;
	}
	switch(statethreeLEDS)
 1de:	81 30       	cpi	r24, 0x01	; 1
 1e0:	49 f0       	breq	.+18     	; 0x1f4 <ThreeLEDsSM+0x4a>
 1e2:	28 f0       	brcs	.+10     	; 0x1ee <ThreeLEDsSM+0x44>
 1e4:	82 30       	cpi	r24, 0x02	; 2
 1e6:	51 f0       	breq	.+20     	; 0x1fc <ThreeLEDsSM+0x52>
 1e8:	83 30       	cpi	r24, 0x03	; 3
 1ea:	79 f4       	brne	.+30     	; 0x20a <ThreeLEDsSM+0x60>
 1ec:	0b c0       	rjmp	.+22     	; 0x204 <ThreeLEDsSM+0x5a>
	{               // Actions
		case threeLEDS:
			output_Three_LEDS = 0x00;
 1ee:	10 92 0c 01 	sts	0x010C, r1	; 0x80010c <output_Three_LEDS>
			break;
 1f2:	08 95       	ret
		case S1:
			output_Three_LEDS = 0x01;
 1f4:	81 e0       	ldi	r24, 0x01	; 1
 1f6:	80 93 0c 01 	sts	0x010C, r24	; 0x80010c <output_Three_LEDS>
			break;
 1fa:	08 95       	ret
		case S2:
			output_Three_LEDS = 0x02;
 1fc:	82 e0       	ldi	r24, 0x02	; 2
 1fe:	80 93 0c 01 	sts	0x010C, r24	; 0x80010c <output_Three_LEDS>
			break;
 202:	08 95       	ret
		case S3:
			output_Three_LEDS = 0x04;
 204:	84 e0       	ldi	r24, 0x04	; 4
 206:	80 93 0c 01 	sts	0x010C, r24	; 0x80010c <output_Three_LEDS>
 20a:	08 95       	ret

0000020c <BlinkingLEDSM>:
			break;
	}
}
void BlinkingLEDSM() // B3
{
	switch(stateblinkingLED)
 20c:	80 91 0a 01 	lds	r24, 0x010A	; 0x80010a <stateblinkingLED>
 210:	81 30       	cpi	r24, 0x01	; 1
 212:	41 f0       	breq	.+16     	; 0x224 <BlinkingLEDSM+0x18>
 214:	18 f0       	brcs	.+6      	; 0x21c <BlinkingLEDSM+0x10>
 216:	82 30       	cpi	r24, 0x02	; 2
 218:	49 f0       	breq	.+18     	; 0x22c <BlinkingLEDSM+0x20>
 21a:	0c c0       	rjmp	.+24     	; 0x234 <BlinkingLEDSM+0x28>
	{               // Transitions
		case blinkingLED:
			stateblinkingLED = ON;
 21c:	81 e0       	ldi	r24, 0x01	; 1
 21e:	80 93 0a 01 	sts	0x010A, r24	; 0x80010a <stateblinkingLED>
			break;
 222:	11 c0       	rjmp	.+34     	; 0x246 <BlinkingLEDSM+0x3a>
		case ON:
			stateblinkingLED = OFF;
 224:	82 e0       	ldi	r24, 0x02	; 2
 226:	80 93 0a 01 	sts	0x010A, r24	; 0x80010a <stateblinkingLED>
 22a:	11 c0       	rjmp	.+34     	; 0x24e <BlinkingLEDSM+0x42>
			break;
		case OFF:
			stateblinkingLED = ON;
 22c:	81 e0       	ldi	r24, 0x01	; 1
 22e:	80 93 0a 01 	sts	0x010A, r24	; 0x80010a <stateblinkingLED>
			break;
 232:	09 c0       	rjmp	.+18     	; 0x246 <BlinkingLEDSM+0x3a>
		default:
			break;
	}
	switch(stateblinkingLED)
 234:	81 30       	cpi	r24, 0x01	; 1
 236:	39 f0       	breq	.+14     	; 0x246 <BlinkingLEDSM+0x3a>
 238:	18 f0       	brcs	.+6      	; 0x240 <BlinkingLEDSM+0x34>
 23a:	82 30       	cpi	r24, 0x02	; 2
 23c:	51 f4       	brne	.+20     	; 0x252 <BlinkingLEDSM+0x46>
 23e:	07 c0       	rjmp	.+14     	; 0x24e <BlinkingLEDSM+0x42>
	{               // Actions
		case blinkingLED:
			output_Blinking_LEDS = 0x00;
 240:	10 92 09 01 	sts	0x0109, r1	; 0x800109 <output_Blinking_LEDS>
			break;
 244:	08 95       	ret
		case ON:
			output_Blinking_LEDS = 0x08;
 246:	88 e0       	ldi	r24, 0x08	; 8
 248:	80 93 09 01 	sts	0x0109, r24	; 0x800109 <output_Blinking_LEDS>
			break;
 24c:	08 95       	ret
		case OFF:
			output_Blinking_LEDS = 0x00;
 24e:	10 92 09 01 	sts	0x0109, r1	; 0x800109 <output_Blinking_LEDS>
 252:	08 95       	ret

00000254 <CombineLEDsSM>:
		case combineLEDS:
			break;
		default:
			break;
	}
	switch(statecombineLEDS)
 254:	80 91 0d 01 	lds	r24, 0x010D	; 0x80010d <statecombineLEDS>
 258:	81 11       	cpse	r24, r1
 25a:	06 c0       	rjmp	.+12     	; 0x268 <CombineLEDsSM+0x14>
	{               // Actions
		case combineLEDS:
			PORTB = output_Three_LEDS | output_Blinking_LEDS;
 25c:	90 91 0c 01 	lds	r25, 0x010C	; 0x80010c <output_Three_LEDS>
 260:	80 91 09 01 	lds	r24, 0x0109	; 0x800109 <output_Blinking_LEDS>
 264:	89 2b       	or	r24, r25
 266:	85 b9       	out	0x05, r24	; 5
 268:	08 95       	ret

0000026a <main>:
	}
}

int main(void)
{
		DDRB = 0xFF; PORTB = 0x00;
 26a:	8f ef       	ldi	r24, 0xFF	; 255
 26c:	84 b9       	out	0x04, r24	; 4
 26e:	15 b8       	out	0x05, r1	; 5
		
		TimerSet(1000);
 270:	68 ee       	ldi	r22, 0xE8	; 232
 272:	73 e0       	ldi	r23, 0x03	; 3
 274:	80 e0       	ldi	r24, 0x00	; 0
 276:	90 e0       	ldi	r25, 0x00	; 0
 278:	27 df       	rcall	.-434    	; 0xc8 <TimerSet>
		TimerOn();
 27a:	37 df       	rcall	.-402    	; 0xea <TimerOn>
 27c:	10 92 0b 01 	sts	0x010B, r1	; 0x80010b <statethreeLEDS>
		
		statethreeLEDS = threeLEDS;
 280:	10 92 0a 01 	sts	0x010A, r1	; 0x80010a <stateblinkingLED>
		stateblinkingLED = blinkingLED;
 284:	10 92 0d 01 	sts	0x010D, r1	; 0x80010d <statecombineLEDS>
		statecombineLEDS = combineLEDS;
		
    /* Replace with your application code */
    while (1) 
    {
			ThreeLEDsSM();
 288:	90 df       	rcall	.-224    	; 0x1aa <ThreeLEDsSM>
			BlinkingLEDSM();
 28a:	c0 df       	rcall	.-128    	; 0x20c <BlinkingLEDSM>
 28c:	e3 df       	rcall	.-58     	; 0x254 <CombineLEDsSM>
			CombineLEDsSM();
 28e:	80 91 08 01 	lds	r24, 0x0108	; 0x800108 <TimerFlag>
			
			while(!TimerFlag){}
 292:	88 23       	and	r24, r24
 294:	e1 f3       	breq	.-8      	; 0x28e <main+0x24>
 296:	10 92 08 01 	sts	0x0108, r1	; 0x800108 <TimerFlag>
			TimerFlag = 0;
 29a:	f6 cf       	rjmp	.-20     	; 0x288 <main+0x1e>

0000029c <_exit>:
 29c:	f8 94       	cli

0000029e <__stop_program>:
    }
 29e:	ff cf       	rjmp	.-2      	; 0x29e <__stop_program>
